; ModuleID = 'source-C-CXX/59/949.c'
source_filename = "source-C-CXX/59/949.c"
target datalayout = "e-m:e-p270:32:32-p271:32:32-p272:64:64-i64:64-f80:128-n8:16:32:64-S128"
target triple = "x86_64-pc-linux-gnu"

@.str = private unnamed_addr constant [3 x i8] c"%d\00", align 1
@.str.1 = private unnamed_addr constant [7 x i8] c"%d %d\0A\00", align 1
@.str.2 = private unnamed_addr constant [6 x i8] c"empty\00", align 1

; Function Attrs: nofree nounwind sspstrong uwtable
define dso_local i32 @main() local_unnamed_addr #0 {
  %1 = alloca i32, align 4
  %2 = bitcast i32* %1 to i8*
  call void @llvm.lifetime.start.p0i8(i64 4, i8* nonnull %2) #3
  %3 = call i32 (i8*, ...) @__isoc99_scanf(i8* getelementptr inbounds ([3 x i8], [3 x i8]* @.str, i64 0, i64 0), i32* nonnull %1)
  %4 = load i32, i32* %1, align 4, !tbaa !5
  %5 = icmp slt i32 %4, 2
  br i1 %5, label %35, label %6

6:                                                ; preds = %0, %27
  %7 = phi i32 [ %28, %27 ], [ %4, %0 ]
  %8 = phi i32 [ %29, %27 ], [ 2, %0 ]
  %9 = phi i32 [ %30, %27 ], [ 0, %0 ]
  %10 = phi i32 [ %31, %27 ], [ 2, %0 ]
  %11 = icmp ugt i32 %10, 2
  br i1 %11, label %14, label %19

12:                                               ; preds = %14
  %13 = icmp eq i32 %18, %10
  br i1 %13, label %19, label %14, !llvm.loop !9

14:                                               ; preds = %6, %12
  %15 = phi i32 [ %18, %12 ], [ 2, %6 ]
  %16 = urem i32 %10, %15
  %17 = icmp eq i32 %16, 0
  %18 = add nuw nsw i32 %15, 1
  br i1 %17, label %27, label %12

19:                                               ; preds = %12, %6
  %20 = sub nsw i32 %10, %8
  %21 = icmp eq i32 %20, 2
  br i1 %21, label %22, label %27

22:                                               ; preds = %19
  %23 = add nsw i32 %9, 1
  %24 = add nsw i32 %10, -2
  %25 = call i32 (i8*, ...) @printf(i8* nonnull dereferenceable(1) getelementptr inbounds ([7 x i8], [7 x i8]* @.str.1, i64 0, i64 0), i32 %24, i32 %10)
  %26 = load i32, i32* %1, align 4, !tbaa !5
  br label %27

27:                                               ; preds = %14, %19, %22
  %28 = phi i32 [ %26, %22 ], [ %7, %19 ], [ %7, %14 ]
  %29 = phi i32 [ %10, %22 ], [ %10, %19 ], [ %8, %14 ]
  %30 = phi i32 [ %23, %22 ], [ %9, %19 ], [ %9, %14 ]
  %31 = add nuw nsw i32 %10, 1
  %32 = icmp slt i32 %10, %28
  br i1 %32, label %6, label %33, !llvm.loop !11

33:                                               ; preds = %27
  %34 = icmp eq i32 %30, 0
  br i1 %34, label %35, label %37

35:                                               ; preds = %0, %33
  %36 = call i32 (i8*, ...) @printf(i8* nonnull dereferenceable(1) getelementptr inbounds ([6 x i8], [6 x i8]* @.str.2, i64 0, i64 0))
  br label %37

37:                                               ; preds = %35, %33
  call void @llvm.lifetime.end.p0i8(i64 4, i8* nonnull %2) #3
  ret i32 0
}

; Function Attrs: argmemonly mustprogress nofree nosync nounwind willreturn
declare void @llvm.lifetime.start.p0i8(i64 immarg, i8* nocapture) #1

; Function Attrs: nofree nounwind
declare noundef i32 @__isoc99_scanf(i8* nocapture noundef readonly, ...) local_unnamed_addr #2

; Function Attrs: nofree nounwind
declare noundef i32 @printf(i8* nocapture noundef readonly, ...) local_unnamed_addr #2

; Function Attrs: argmemonly mustprogress nofree nosync nounwind willreturn
declare void @llvm.lifetime.end.p0i8(i64 immarg, i8* nocapture) #1


!llvm.module.flags = !{!0, !1, !2, !3}
!llvm.ident = !{!4}

!0 = !{i32 1, !"wchar_size", i32 4}
!1 = !{i32 7, !"PIC Level", i32 2}
!2 = !{i32 7, !"PIE Level", i32 2}
!3 = !{i32 7, !"uwtable", i32 1}
!4 = !{!"clang version 13.0.0"}
!5 = !{!6, !6, i64 0}
!6 = !{!"int", !7, i64 0}
!7 = !{!"omnipotent char", !8, i64 0}
!8 = !{!"Simple C/C++ TBAA"}
!9 = distinct !{!9, !10}
!10 = !{!"llvm.loop.mustprogress"}
!11 = distinct !{!11, !10}
